(lp0
(VMaurice Wallace
p1
(lp2
S'Town planner'
p3
aS'Scientist, research (medical)'
p4
atp5
a(VHeather Thomas
p6
(lp7
S'Animal nutritionist'
p8
aS'Engineer, site'
p9
atp10
a(VAmanda Wright
p11
(lp12
S'Building services engineer'
p13
aS'Artist'
p14
atp15
a(VAmber Duran
p16
(lp17
S'Building surveyor'
p18
aS'Civil engineer, contracting'
p19
atp20
a(VJennifer Sutton
p21
(lp22
S'Aid worker'
p23
aS'Dentist'
p24
atp25
a(VEdward Thompson
p26
(lp27
S'Computer games developer'
p28
aS'Teaching laboratory technician'
p29
atp30
a(VSandra Garcia
p31
(lp32
S'Insurance account manager'
p33
aS'Scientist, research (physical sciences)'
p34
atp35
a(VAngela Elliott
p36
(lp37
S'Plant breeder/geneticist'
p38
aS'Psychologist, clinical'
p39
atp40
a(VLeonard Brandt
p41
(lp42
g34
aS'Psychologist, prison and probation services'
p43
atp44
a(VDavid Williams
p45
(lp46
S'Metallurgist'
p47
aS'Scientific laboratory technician'
p48
atp49
a(VNicole Valenzuela
p50
(lp51
S'Broadcast journalist'
p52
aS'Recruitment consultant'
p53
atp54
a(VBobby Barnes
p55
(lp56
S'Senior tax professional/tax inspector'
p57
aS'Restaurant manager'
p58
atp59
a(VDavid Morales
p60
(lp61
S'Psychiatrist'
p62
aS'Engineer, biomedical'
p63
atp64
a(VMargaret James
p65
(lp66
S'Mudlogger'
p67
aS'Conservation officer, historic buildings'
p68
atp69
a(VStephanie Dixon
p70
(lp71
S'Scientist, product/process development'
p72
aS'Further education lecturer'
p73
atp74
a(VJamie Meyer
p75
(lp76
g53
aS'Sales professional, IT'
p77
atp78
a(VRobert Adams
p79
(lp80
S'Production assistant, television'
p81
aS'Engineer, electrical'
p82
atp83
a(VGreg Thompson
p84
(lp85
S'Print production planner'
p86
aS'Theatre stage manager'
p87
atp88
a(VMichael Stokes
p89
(lp90
S'Surveyor, quantity'
p91
aS'Education officer, museum'
p92
atp93
a(VMrs. Jessica Douglas DDS
p94
(lp95
S'Best boy'
p96
aS'Banker'
p97
atp98
a(VChelsea Keith
p99
(lp100
S'Furniture conservator/restorer'
p101
aS'Theme park manager'
p102
atp103
a(VAmy Madden
p104
(lp105
S'Patent attorney'
p106
aS'Health and safety inspector'
p107
atp108
a(VJohn Castro
p109
(lp110
S'Lecturer, further education'
p111
aS'Ambulance person'
p112
atp113
a(VBrenda Rivera
p114
(lp115
g101
aS'Accountant, chartered certified'
p116
atp117
a(VMatthew Garza DDS
p118
(lp119
S'Optometrist'
p120
aS'Education administrator'
p121
atp122
a.